target datalayout = "e-m:e-p270:32:32-p271:32:32-p272:64:64-i64:64-i128:128-f80:128-n8:16:32:64-S128"
target triple = "x86_64-pc-linux-gnu"

%"class.std::shared_ptr" = type { %"class.std::__shared_ptr" }
%"class.std::__shared_ptr" = type { ptr, %"class.std::__shared_count" }
%"class.std::__shared_count" = type { ptr }
%"struct.Luau::Position" = type { i32, i32 }
%"class.std::optional.448" = type { %"struct.std::_Optional_base.449" }
%"struct.std::_Optional_base.449" = type { %"struct.std::_Optional_payload.451" }
%"struct.std::_Optional_payload.451" = type { %"struct.std::_Optional_payload_base.base.453", [7 x i8] }
%"struct.std::_Optional_payload_base.base.453" = type <{ %"union.std::_Optional_payload_base<const Luau::Type *>::_Storage", i8 }>
%"union.std::_Optional_payload_base<const Luau::Type *>::_Storage" = type { ptr }

; Function Attrs: mustprogress nounwind uwtable
define linkonce_odr dso_local noundef ptr @_ZNKSt12__shared_ptrIN4Luau6ModuleELN9__gnu_cxx12_Lock_policyE2EE3getEv(ptr noundef nonnull align 8 dereferenceable(16) %0) #1 comdat align 2 {
  %2 = alloca ptr, align 8
  store ptr %0, ptr %2, align 8
  %3 = load ptr, ptr %2, align 8
  %4 = getelementptr inbounds %"class.std::__shared_ptr", ptr %3, i32 0, i32 0
  %5 = load ptr, ptr %4, align 8
  ret ptr %5
}

; Function Attrs: mustprogress nounwind uwtable
define linkonce_odr dso_local noundef ptr @_ZNKSt19__shared_ptr_accessIN4Luau6ModuleELN9__gnu_cxx12_Lock_policyE2ELb0ELb0EE6_M_getEv(ptr noundef nonnull align 1 dereferenceable(1) %0) #1 comdat align 2 {
  %2 = alloca ptr, align 8
  store ptr %0, ptr %2, align 8
  %3 = load ptr, ptr %2, align 8
  %4 = call noundef ptr @_ZNKSt12__shared_ptrIN4Luau6ModuleELN9__gnu_cxx12_Lock_policyE2EE3getEv(ptr noundef nonnull align 8 dereferenceable(16) %3) #2
  ret ptr %4
}

; Function Attrs: mustprogress nounwind uwtable
define linkonce_odr dso_local noundef nonnull align 8 dereferenceable(952) ptr @_ZNKSt19__shared_ptr_accessIN4Luau6ModuleELN9__gnu_cxx12_Lock_policyE2ELb0ELb0EEdeEv(ptr noundef nonnull align 1 dereferenceable(1) %0) #1 comdat align 2 {
  %2 = alloca ptr, align 8
  store ptr %0, ptr %2, align 8
  %3 = load ptr, ptr %2, align 8
  br label %4

4:                                                ; preds = %1
  br label %5

5:                                                ; preds = %4
  br label %6

6:                                                ; preds = %5
  %7 = call noundef ptr @_ZNKSt19__shared_ptr_accessIN4Luau6ModuleELN9__gnu_cxx12_Lock_policyE2ELb0ELb0EE6_M_getEv(ptr noundef nonnull align 1 dereferenceable(1) %3) #2
  ret ptr %7
}

; Function Attrs: mustprogress uwtable
define dso_local { ptr, i8 } @_ZN4Luau7Fixture26findExpectedTypeAtPositionENS_8PositionE(ptr noundef nonnull align 8 dereferenceable(2232) %0, i64 %1) #6 align 2 personality ptr @__gxx_personality_v0 {
  %3 = alloca %"class.std::optional.448", align 8
  %4 = alloca %"struct.Luau::Position", align 4
  %5 = alloca ptr, align 8
  %6 = alloca %"class.std::shared_ptr", align 8
  %7 = alloca ptr, align 8
  %8 = alloca ptr, align 8
  %9 = alloca i32, align 4
  %10 = alloca %"struct.Luau::Position", align 4
  store i64 %1, ptr %4, align 4
  store ptr %0, ptr %5, align 8
  %11 = load ptr, ptr %5, align 8
  call void @_ZN4Luau7Fixture13getMainModuleEv(ptr dead_on_unwind writable sret(%"class.std::shared_ptr") align 8 %6, ptr noundef nonnull align 8 dereferenceable(2232) %11)
  %12 = invoke noundef ptr @_ZN4Luau7Fixture19getMainSourceModuleEv(ptr noundef nonnull align 8 dereferenceable(2232) %11)
          to label %13 unwind label %28

13:                                               ; preds = %2
  store ptr %12, ptr %7, align 8
  %14 = call noundef nonnull align 8 dereferenceable(952) ptr @_ZNKSt19__shared_ptr_accessIN4Luau6ModuleELN9__gnu_cxx12_Lock_policyE2ELb0ELb0EEdeEv(ptr noundef nonnull align 1 dereferenceable(1) %6) #2
  %15 = load ptr, ptr %7, align 8
  call void @llvm.memcpy.p0.p0.i64(ptr align 4 %10, ptr align 4 %4, i64 8, i1 false)
  %16 = load i64, ptr %10, align 4
  %17 = invoke { ptr, i8 } @_ZN4Luau26findExpectedTypeAtPositionERKNS_6ModuleERKNS_12SourceModuleENS_8PositionE(ptr noundef nonnull align 8 dereferenceable(952) %14, ptr noundef nonnull align 8 dereferenceable(240) %15, i64 %16)
          to label %18 unwind label %28

18:                                               ; preds = %13
  %19 = getelementptr inbounds %"class.std::optional.448", ptr %3, i32 0, i32 0
  %20 = getelementptr inbounds %"struct.std::_Optional_base.449", ptr %19, i32 0, i32 0
  %21 = getelementptr inbounds { ptr, i8 }, ptr %20, i32 0, i32 0
  %22 = extractvalue { ptr, i8 } %17, 0
  store ptr %22, ptr %21, align 8
  %23 = getelementptr inbounds { ptr, i8 }, ptr %20, i32 0, i32 1
  %24 = extractvalue { ptr, i8 } %17, 1
  store i8 %24, ptr %23, align 8
  call void @_ZNSt10shared_ptrIN4Luau6ModuleEED2Ev(ptr noundef nonnull align 8 dereferenceable(16) %6) #2
  %25 = getelementptr inbounds %"class.std::optional.448", ptr %3, i32 0, i32 0
  %26 = getelementptr inbounds %"struct.std::_Optional_base.449", ptr %25, i32 0, i32 0
  %27 = load { ptr, i8 }, ptr %26, align 8
  ret { ptr, i8 } %27

28:                                               ; preds = %13, %2
  %29 = landingpad { ptr, i32 }
          cleanup
  %30 = extractvalue { ptr, i32 } %29, 0
  store ptr %30, ptr %8, align 8
  %31 = extractvalue { ptr, i32 } %29, 1
  store i32 %31, ptr %9, align 4
  call void @_ZNSt10shared_ptrIN4Luau6ModuleEED2Ev(ptr noundef nonnull align 8 dereferenceable(16) %6) #2
  br label %32

32:                                               ; preds = %28
  %33 = load ptr, ptr %8, align 8
  %34 = load i32, ptr %9, align 4
  %35 = insertvalue { ptr, i32 } poison, ptr %33, 0
  %36 = insertvalue { ptr, i32 } %35, i32 %34, 1
  resume { ptr, i32 } %36
}